target datalayout = "e-m:e-p270:32:32-p271:32:32-p272:64:64-i64:64-i128:128-f80:128-n8:16:32:64-S128"
target triple = "x86_64-unknown-linux-gnu"

%class.b3Vector3 = type { %union.anon }
%union.anon = type { [4 x float] }
%struct.AabbCalculationCallback = type { %class.b3InternalTriangleIndexCallback, [8 x i8], %class.b3Vector3, %class.b3Vector3 }
%class.b3InternalTriangleIndexCallback = type { ptr }

; Function Attrs: mustprogress nounwind uwtable
define linkonce_odr dso_local void @_Z8b3SetMaxIfEvRT_RKS0_(ptr noundef nonnull align 4 dereferenceable(4) %a, ptr noundef nonnull align 4 dereferenceable(4) %b) #0 comdat {
entry:
  %a.addr = alloca ptr, align 8
  %b.addr = alloca ptr, align 8
  store ptr %a, ptr %a.addr, align 8
  store ptr %b, ptr %b.addr, align 8
  %0 = load ptr, ptr %a.addr, align 8
  %1 = load float, ptr %0, align 4
  %2 = load ptr, ptr %b.addr, align 8
  %3 = load float, ptr %2, align 4
  %cmp = fcmp olt float %1, %3
  br i1 %cmp, label %if.then, label %if.end

if.then:                                          ; preds = %entry
  %4 = load ptr, ptr %b.addr, align 8
  %5 = load float, ptr %4, align 4
  %6 = load ptr, ptr %a.addr, align 8
  store float %5, ptr %6, align 4
  br label %if.end

if.end:                                           ; preds = %if.then, %entry
  ret void
}

; Function Attrs: mustprogress nounwind uwtable
define linkonce_odr dso_local void @_Z8b3SetMinIfEvRT_RKS0_(ptr noundef nonnull align 4 dereferenceable(4) %a, ptr noundef nonnull align 4 dereferenceable(4) %b) #0 comdat {
entry:
  %a.addr = alloca ptr, align 8
  %b.addr = alloca ptr, align 8
  store ptr %a, ptr %a.addr, align 8
  store ptr %b, ptr %b.addr, align 8
  %0 = load ptr, ptr %b.addr, align 8
  %1 = load float, ptr %0, align 4
  %2 = load ptr, ptr %a.addr, align 8
  %3 = load float, ptr %2, align 4
  %cmp = fcmp olt float %1, %3
  br i1 %cmp, label %if.then, label %if.end

if.then:                                          ; preds = %entry
  %4 = load ptr, ptr %b.addr, align 8
  %5 = load float, ptr %4, align 4
  %6 = load ptr, ptr %a.addr, align 8
  store float %5, ptr %6, align 4
  br label %if.end

if.end:                                           ; preds = %if.then, %entry
  ret void
}

; Function Attrs: mustprogress uwtable
define linkonce_odr dso_local void @_ZN9b3Vector36setMaxERKS_(ptr noundef nonnull align 16 dereferenceable(16) %this, ptr noundef nonnull align 16 dereferenceable(16) %other) #2 comdat align 2 {
entry:
  %this.addr = alloca ptr, align 8
  %other.addr = alloca ptr, align 8
  store ptr %this, ptr %this.addr, align 8
  store ptr %other, ptr %other.addr, align 8
  %this1 = load ptr, ptr %this.addr, align 8
  %0 = getelementptr inbounds %class.b3Vector3, ptr %this1, i32 0, i32 0
  %arrayidx = getelementptr inbounds [4 x float], ptr %0, i64 0, i64 0
  %1 = load ptr, ptr %other.addr, align 8
  %2 = getelementptr inbounds %class.b3Vector3, ptr %1, i32 0, i32 0
  %arrayidx2 = getelementptr inbounds [4 x float], ptr %2, i64 0, i64 0
  call void @_Z8b3SetMaxIfEvRT_RKS0_(ptr noundef nonnull align 4 dereferenceable(4) %arrayidx, ptr noundef nonnull align 4 dereferenceable(4) %arrayidx2)
  %3 = getelementptr inbounds %class.b3Vector3, ptr %this1, i32 0, i32 0
  %arrayidx3 = getelementptr inbounds [4 x float], ptr %3, i64 0, i64 1
  %4 = load ptr, ptr %other.addr, align 8
  %5 = getelementptr inbounds %class.b3Vector3, ptr %4, i32 0, i32 0
  %arrayidx4 = getelementptr inbounds [4 x float], ptr %5, i64 0, i64 1
  call void @_Z8b3SetMaxIfEvRT_RKS0_(ptr noundef nonnull align 4 dereferenceable(4) %arrayidx3, ptr noundef nonnull align 4 dereferenceable(4) %arrayidx4)
  %6 = getelementptr inbounds %class.b3Vector3, ptr %this1, i32 0, i32 0
  %arrayidx5 = getelementptr inbounds [4 x float], ptr %6, i64 0, i64 2
  %7 = load ptr, ptr %other.addr, align 8
  %8 = getelementptr inbounds %class.b3Vector3, ptr %7, i32 0, i32 0
  %arrayidx6 = getelementptr inbounds [4 x float], ptr %8, i64 0, i64 2
  call void @_Z8b3SetMaxIfEvRT_RKS0_(ptr noundef nonnull align 4 dereferenceable(4) %arrayidx5, ptr noundef nonnull align 4 dereferenceable(4) %arrayidx6)
  %9 = getelementptr inbounds %class.b3Vector3, ptr %this1, i32 0, i32 0
  %arrayidx7 = getelementptr inbounds [4 x float], ptr %9, i64 0, i64 3
  %10 = load ptr, ptr %other.addr, align 8
  %11 = getelementptr inbounds %class.b3Vector3, ptr %10, i32 0, i32 0
  %arrayidx8 = getelementptr inbounds [4 x float], ptr %11, i64 0, i64 3
  call void @_Z8b3SetMaxIfEvRT_RKS0_(ptr noundef nonnull align 4 dereferenceable(4) %arrayidx7, ptr noundef nonnull align 4 dereferenceable(4) %arrayidx8)
  ret void
}

; Function Attrs: mustprogress uwtable
define linkonce_odr dso_local void @_ZN9b3Vector36setMinERKS_(ptr noundef nonnull align 16 dereferenceable(16) %this, ptr noundef nonnull align 16 dereferenceable(16) %other) #2 comdat align 2 {
entry:
  %this.addr = alloca ptr, align 8
  %other.addr = alloca ptr, align 8
  store ptr %this, ptr %this.addr, align 8
  store ptr %other, ptr %other.addr, align 8
  %this1 = load ptr, ptr %this.addr, align 8
  %0 = getelementptr inbounds %class.b3Vector3, ptr %this1, i32 0, i32 0
  %arrayidx = getelementptr inbounds [4 x float], ptr %0, i64 0, i64 0
  %1 = load ptr, ptr %other.addr, align 8
  %2 = getelementptr inbounds %class.b3Vector3, ptr %1, i32 0, i32 0
  %arrayidx2 = getelementptr inbounds [4 x float], ptr %2, i64 0, i64 0
  call void @_Z8b3SetMinIfEvRT_RKS0_(ptr noundef nonnull align 4 dereferenceable(4) %arrayidx, ptr noundef nonnull align 4 dereferenceable(4) %arrayidx2)
  %3 = getelementptr inbounds %class.b3Vector3, ptr %this1, i32 0, i32 0
  %arrayidx3 = getelementptr inbounds [4 x float], ptr %3, i64 0, i64 1
  %4 = load ptr, ptr %other.addr, align 8
  %5 = getelementptr inbounds %class.b3Vector3, ptr %4, i32 0, i32 0
  %arrayidx4 = getelementptr inbounds [4 x float], ptr %5, i64 0, i64 1
  call void @_Z8b3SetMinIfEvRT_RKS0_(ptr noundef nonnull align 4 dereferenceable(4) %arrayidx3, ptr noundef nonnull align 4 dereferenceable(4) %arrayidx4)
  %6 = getelementptr inbounds %class.b3Vector3, ptr %this1, i32 0, i32 0
  %arrayidx5 = getelementptr inbounds [4 x float], ptr %6, i64 0, i64 2
  %7 = load ptr, ptr %other.addr, align 8
  %8 = getelementptr inbounds %class.b3Vector3, ptr %7, i32 0, i32 0
  %arrayidx6 = getelementptr inbounds [4 x float], ptr %8, i64 0, i64 2
  call void @_Z8b3SetMinIfEvRT_RKS0_(ptr noundef nonnull align 4 dereferenceable(4) %arrayidx5, ptr noundef nonnull align 4 dereferenceable(4) %arrayidx6)
  %9 = getelementptr inbounds %class.b3Vector3, ptr %this1, i32 0, i32 0
  %arrayidx7 = getelementptr inbounds [4 x float], ptr %9, i64 0, i64 3
  %10 = load ptr, ptr %other.addr, align 8
  %11 = getelementptr inbounds %class.b3Vector3, ptr %10, i32 0, i32 0
  %arrayidx8 = getelementptr inbounds [4 x float], ptr %11, i64 0, i64 3
  call void @_Z8b3SetMinIfEvRT_RKS0_(ptr noundef nonnull align 4 dereferenceable(4) %arrayidx7, ptr noundef nonnull align 4 dereferenceable(4) %arrayidx8)
  ret void
}

; Function Attrs: mustprogress uwtable
define internal void @_ZZN23b3StridingMeshInterface23calculateAabbBruteForceER9b3Vector3S1_EN23AabbCalculationCallback28internalProcessTriangleIndexEPS0_ii(ptr noundef nonnull align 16 dereferenceable(48) %this, ptr noundef %triangle, i32 noundef %partId, i32 noundef %triangleIndex) unnamed_addr #2 align 2 {
entry:
  %this.addr = alloca ptr, align 8
  %triangle.addr = alloca ptr, align 8
  %partId.addr = alloca i32, align 4
  %triangleIndex.addr = alloca i32, align 4
  store ptr %this, ptr %this.addr, align 8
  store ptr %triangle, ptr %triangle.addr, align 8
  store i32 %partId, ptr %partId.addr, align 4
  store i32 %triangleIndex, ptr %triangleIndex.addr, align 4
  %this1 = load ptr, ptr %this.addr, align 8
  %m_aabbMin = getelementptr inbounds %struct.AabbCalculationCallback, ptr %this1, i32 0, i32 2
  %0 = load ptr, ptr %triangle.addr, align 8
  %arrayidx = getelementptr inbounds %class.b3Vector3, ptr %0, i64 0
  call void @_ZN9b3Vector36setMinERKS_(ptr noundef nonnull align 16 dereferenceable(16) %m_aabbMin, ptr noundef nonnull align 16 dereferenceable(16) %arrayidx)
  %m_aabbMax = getelementptr inbounds %struct.AabbCalculationCallback, ptr %this1, i32 0, i32 3
  %1 = load ptr, ptr %triangle.addr, align 8
  %arrayidx2 = getelementptr inbounds %class.b3Vector3, ptr %1, i64 0
  call void @_ZN9b3Vector36setMaxERKS_(ptr noundef nonnull align 16 dereferenceable(16) %m_aabbMax, ptr noundef nonnull align 16 dereferenceable(16) %arrayidx2)
  %m_aabbMin3 = getelementptr inbounds %struct.AabbCalculationCallback, ptr %this1, i32 0, i32 2
  %2 = load ptr, ptr %triangle.addr, align 8
  %arrayidx4 = getelementptr inbounds %class.b3Vector3, ptr %2, i64 1
  call void @_ZN9b3Vector36setMinERKS_(ptr noundef nonnull align 16 dereferenceable(16) %m_aabbMin3, ptr noundef nonnull align 16 dereferenceable(16) %arrayidx4)
  %m_aabbMax5 = getelementptr inbounds %struct.AabbCalculationCallback, ptr %this1, i32 0, i32 3
  %3 = load ptr, ptr %triangle.addr, align 8
  %arrayidx6 = getelementptr inbounds %class.b3Vector3, ptr %3, i64 1
  call void @_ZN9b3Vector36setMaxERKS_(ptr noundef nonnull align 16 dereferenceable(16) %m_aabbMax5, ptr noundef nonnull align 16 dereferenceable(16) %arrayidx6)
  %m_aabbMin7 = getelementptr inbounds %struct.AabbCalculationCallback, ptr %this1, i32 0, i32 2
  %4 = load ptr, ptr %triangle.addr, align 8
  %arrayidx8 = getelementptr inbounds %class.b3Vector3, ptr %4, i64 2
  call void @_ZN9b3Vector36setMinERKS_(ptr noundef nonnull align 16 dereferenceable(16) %m_aabbMin7, ptr noundef nonnull align 16 dereferenceable(16) %arrayidx8)
  %m_aabbMax9 = getelementptr inbounds %struct.AabbCalculationCallback, ptr %this1, i32 0, i32 3
  %5 = load ptr, ptr %triangle.addr, align 8
  %arrayidx10 = getelementptr inbounds %class.b3Vector3, ptr %5, i64 2
  call void @_ZN9b3Vector36setMaxERKS_(ptr noundef nonnull align 16 dereferenceable(16) %m_aabbMax9, ptr noundef nonnull align 16 dereferenceable(16) %arrayidx10)
  ret void
}