; Function Attrs: mustprogress nofree norecurse nosync nounwind willreturn memory(argmem: readwrite) uwtable
define internal void @_ZZN23b3StridingMeshInterface23calculateAabbBruteForceER9b3Vector3S1_EN23AabbCalculationCallback28internalProcessTriangleIndexEPS0_ii(ptr nocapture noundef nonnull align 16 dereferenceable(48) %this, ptr nocapture noundef readonly %triangle, i32 %partId, i32 %triangleIndex) unnamed_addr #6 align 2 {
entry:
  %m_aabbMin = getelementptr inbounds i8, ptr %this, i64 16
  %0 = load float, ptr %triangle, align 4
  %1 = load float, ptr %m_aabbMin, align 16
  %cmp.i.i = fcmp olt float %0, %1
  br i1 %cmp.i.i, label %if.then.i.i, label %_Z8b3SetMinIfEvRT_RKS0_.exit.i

if.then.i.i:                                      ; preds = %entry
  store float %0, ptr %m_aabbMin, align 16
  br label %_Z8b3SetMinIfEvRT_RKS0_.exit.i

_Z8b3SetMinIfEvRT_RKS0_.exit.i:                   ; preds = %if.then.i.i, %entry
  %2 = phi float [ %0, %if.then.i.i ], [ %1, %entry ]
  %arrayidx3.i = getelementptr inbounds i8, ptr %this, i64 20
  %arrayidx4.i = getelementptr inbounds i8, ptr %triangle, i64 4
  %3 = load float, ptr %arrayidx4.i, align 4
  %4 = load float, ptr %arrayidx3.i, align 4
  %cmp.i4.i = fcmp olt float %3, %4
  br i1 %cmp.i4.i, label %if.then.i5.i, label %_Z8b3SetMinIfEvRT_RKS0_.exit6.i

if.then.i5.i:                                     ; preds = %_Z8b3SetMinIfEvRT_RKS0_.exit.i
  store float %3, ptr %arrayidx3.i, align 4
  br label %_Z8b3SetMinIfEvRT_RKS0_.exit6.i

_Z8b3SetMinIfEvRT_RKS0_.exit6.i:                  ; preds = %if.then.i5.i, %_Z8b3SetMinIfEvRT_RKS0_.exit.i
  %5 = phi float [ %3, %if.then.i5.i ], [ %4, %_Z8b3SetMinIfEvRT_RKS0_.exit.i ]
  %arrayidx5.i = getelementptr inbounds i8, ptr %this, i64 24
  %arrayidx6.i = getelementptr inbounds i8, ptr %triangle, i64 8
  %6 = load float, ptr %arrayidx6.i, align 4
  %7 = load float, ptr %arrayidx5.i, align 8
  %cmp.i7.i = fcmp olt float %6, %7
  br i1 %cmp.i7.i, label %if.then.i8.i, label %_Z8b3SetMinIfEvRT_RKS0_.exit9.i

if.then.i8.i:                                     ; preds = %_Z8b3SetMinIfEvRT_RKS0_.exit6.i
  store float %6, ptr %arrayidx5.i, align 8
  br label %_Z8b3SetMinIfEvRT_RKS0_.exit9.i

_Z8b3SetMinIfEvRT_RKS0_.exit9.i:                  ; preds = %if.then.i8.i, %_Z8b3SetMinIfEvRT_RKS0_.exit6.i
  %8 = phi float [ %6, %if.then.i8.i ], [ %7, %_Z8b3SetMinIfEvRT_RKS0_.exit6.i ]
  %arrayidx7.i = getelementptr inbounds i8, ptr %this, i64 28
  %arrayidx8.i = getelementptr inbounds i8, ptr %triangle, i64 12
  %9 = load float, ptr %arrayidx8.i, align 4
  %10 = load float, ptr %arrayidx7.i, align 4
  %cmp.i10.i = fcmp olt float %9, %10
  br i1 %cmp.i10.i, label %if.then.i11.i, label %_ZN9b3Vector36setMinERKS_.exit

if.then.i11.i:                                    ; preds = %_Z8b3SetMinIfEvRT_RKS0_.exit9.i
  store float %9, ptr %arrayidx7.i, align 4
  br label %_ZN9b3Vector36setMinERKS_.exit

_ZN9b3Vector36setMinERKS_.exit:                   ; preds = %_Z8b3SetMinIfEvRT_RKS0_.exit9.i, %if.then.i11.i
  %11 = phi float [ %10, %_Z8b3SetMinIfEvRT_RKS0_.exit9.i ], [ %9, %if.then.i11.i ]
  %m_aabbMax = getelementptr inbounds i8, ptr %this, i64 32
  %12 = load float, ptr %m_aabbMax, align 16
  %13 = load float, ptr %triangle, align 4
  %cmp.i.i6 = fcmp olt float %12, %13
  br i1 %cmp.i.i6, label %if.then.i.i19, label %_Z8b3SetMaxIfEvRT_RKS0_.exit.i

if.then.i.i19:                                    ; preds = %_ZN9b3Vector36setMinERKS_.exit
  store float %13, ptr %m_aabbMax, align 16
  br label %_Z8b3SetMaxIfEvRT_RKS0_.exit.i

_Z8b3SetMaxIfEvRT_RKS0_.exit.i:                   ; preds = %if.then.i.i19, %_ZN9b3Vector36setMinERKS_.exit
  %14 = phi float [ %13, %if.then.i.i19 ], [ %12, %_ZN9b3Vector36setMinERKS_.exit ]
  %arrayidx3.i7 = getelementptr inbounds i8, ptr %this, i64 36
  %15 = load float, ptr %arrayidx3.i7, align 4
  %16 = load float, ptr %arrayidx4.i, align 4
  %cmp.i4.i9 = fcmp olt float %15, %16
  br i1 %cmp.i4.i9, label %if.then.i5.i18, label %_Z8b3SetMaxIfEvRT_RKS0_.exit6.i

if.then.i5.i18:                                   ; preds = %_Z8b3SetMaxIfEvRT_RKS0_.exit.i
  store float %16, ptr %arrayidx3.i7, align 4
  br label %_Z8b3SetMaxIfEvRT_RKS0_.exit6.i

_Z8b3SetMaxIfEvRT_RKS0_.exit6.i:                  ; preds = %if.then.i5.i18, %_Z8b3SetMaxIfEvRT_RKS0_.exit.i
  %17 = phi float [ %16, %if.then.i5.i18 ], [ %15, %_Z8b3SetMaxIfEvRT_RKS0_.exit.i ]
  %arrayidx5.i10 = getelementptr inbounds i8, ptr %this, i64 40
  %18 = load float, ptr %arrayidx5.i10, align 8
  %19 = load float, ptr %arrayidx6.i, align 4
  %cmp.i7.i12 = fcmp olt float %18, %19
  br i1 %cmp.i7.i12, label %if.then.i8.i17, label %_Z8b3SetMaxIfEvRT_RKS0_.exit9.i

if.then.i8.i17:                                   ; preds = %_Z8b3SetMaxIfEvRT_RKS0_.exit6.i
  store float %19, ptr %arrayidx5.i10, align 8
  br label %_Z8b3SetMaxIfEvRT_RKS0_.exit9.i

_Z8b3SetMaxIfEvRT_RKS0_.exit9.i:                  ; preds = %if.then.i8.i17, %_Z8b3SetMaxIfEvRT_RKS0_.exit6.i
  %20 = phi float [ %19, %if.then.i8.i17 ], [ %18, %_Z8b3SetMaxIfEvRT_RKS0_.exit6.i ]
  %arrayidx7.i13 = getelementptr inbounds i8, ptr %this, i64 44
  %21 = load float, ptr %arrayidx7.i13, align 4
  %22 = load float, ptr %arrayidx8.i, align 4
  %cmp.i10.i15 = fcmp olt float %21, %22
  br i1 %cmp.i10.i15, label %if.then.i11.i16, label %_ZN9b3Vector36setMaxERKS_.exit

if.then.i11.i16:                                  ; preds = %_Z8b3SetMaxIfEvRT_RKS0_.exit9.i
  store float %22, ptr %arrayidx7.i13, align 4
  br label %_ZN9b3Vector36setMaxERKS_.exit

_ZN9b3Vector36setMaxERKS_.exit:                   ; preds = %_Z8b3SetMaxIfEvRT_RKS0_.exit9.i, %if.then.i11.i16
  %23 = phi float [ %21, %_Z8b3SetMaxIfEvRT_RKS0_.exit9.i ], [ %22, %if.then.i11.i16 ]
  %arrayidx4 = getelementptr inbounds i8, ptr %triangle, i64 16
  %24 = load float, ptr %arrayidx4, align 4
  %cmp.i.i20 = fcmp olt float %24, %2
  br i1 %cmp.i.i20, label %if.then.i.i36, label %_Z8b3SetMinIfEvRT_RKS0_.exit.i21

if.then.i.i36:                                    ; preds = %_ZN9b3Vector36setMaxERKS_.exit
  store float %24, ptr %m_aabbMin, align 16
  br label %_Z8b3SetMinIfEvRT_RKS0_.exit.i21

_Z8b3SetMinIfEvRT_RKS0_.exit.i21:                 ; preds = %if.then.i.i36, %_ZN9b3Vector36setMaxERKS_.exit
  %25 = phi float [ %24, %if.then.i.i36 ], [ %2, %_ZN9b3Vector36setMaxERKS_.exit ]
  %arrayidx4.i23 = getelementptr inbounds i8, ptr %triangle, i64 20
  %26 = load float, ptr %arrayidx4.i23, align 4
  %cmp.i4.i24 = fcmp olt float %26, %5
  br i1 %cmp.i4.i24, label %if.then.i5.i35, label %_Z8b3SetMinIfEvRT_RKS0_.exit6.i25

if.then.i5.i35:                                   ; preds = %_Z8b3SetMinIfEvRT_RKS0_.exit.i21
  store float %26, ptr %arrayidx3.i, align 4
  br label %_Z8b3SetMinIfEvRT_RKS0_.exit6.i25

_Z8b3SetMinIfEvRT_RKS0_.exit6.i25:                ; preds = %if.then.i5.i35, %_Z8b3SetMinIfEvRT_RKS0_.exit.i21
  %27 = phi float [ %26, %if.then.i5.i35 ], [ %5, %_Z8b3SetMinIfEvRT_RKS0_.exit.i21 ]
  %arrayidx6.i27 = getelementptr inbounds i8, ptr %triangle, i64 24
  %28 = load float, ptr %arrayidx6.i27, align 4
  %cmp.i7.i28 = fcmp olt float %28, %8
  br i1 %cmp.i7.i28, label %if.then.i8.i34, label %_Z8b3SetMinIfEvRT_RKS0_.exit9.i29

if.then.i8.i34:                                   ; preds = %_Z8b3SetMinIfEvRT_RKS0_.exit6.i25
  store float %28, ptr %arrayidx5.i, align 8
  br label %_Z8b3SetMinIfEvRT_RKS0_.exit9.i29

_Z8b3SetMinIfEvRT_RKS0_.exit9.i29:                ; preds = %if.then.i8.i34, %_Z8b3SetMinIfEvRT_RKS0_.exit6.i25
  %29 = phi float [ %28, %if.then.i8.i34 ], [ %8, %_Z8b3SetMinIfEvRT_RKS0_.exit6.i25 ]
  %arrayidx8.i31 = getelementptr inbounds i8, ptr %triangle, i64 28
  %30 = load float, ptr %arrayidx8.i31, align 4
  %cmp.i10.i32 = fcmp olt float %30, %11
  br i1 %cmp.i10.i32, label %if.then.i11.i33, label %_ZN9b3Vector36setMinERKS_.exit37

if.then.i11.i33:                                  ; preds = %_Z8b3SetMinIfEvRT_RKS0_.exit9.i29
  store float %30, ptr %arrayidx7.i, align 4
  br label %_ZN9b3Vector36setMinERKS_.exit37

_ZN9b3Vector36setMinERKS_.exit37:                 ; preds = %_Z8b3SetMinIfEvRT_RKS0_.exit9.i29, %if.then.i11.i33
  %31 = phi float [ %11, %_Z8b3SetMinIfEvRT_RKS0_.exit9.i29 ], [ %30, %if.then.i11.i33 ]
  %32 = load float, ptr %arrayidx4, align 4
  %cmp.i.i38 = fcmp olt float %14, %32
  br i1 %cmp.i.i38, label %if.then.i.i54, label %_Z8b3SetMaxIfEvRT_RKS0_.exit.i39

if.then.i.i54:                                    ; preds = %_ZN9b3Vector36setMinERKS_.exit37
  store float %32, ptr %m_aabbMax, align 16
  br label %_Z8b3SetMaxIfEvRT_RKS0_.exit.i39

_Z8b3SetMaxIfEvRT_RKS0_.exit.i39:                 ; preds = %if.then.i.i54, %_ZN9b3Vector36setMinERKS_.exit37
  %33 = phi float [ %32, %if.then.i.i54 ], [ %14, %_ZN9b3Vector36setMinERKS_.exit37 ]
  %34 = load float, ptr %arrayidx4.i23, align 4
  %cmp.i4.i42 = fcmp olt float %17, %34
  br i1 %cmp.i4.i42, label %if.then.i5.i53, label %_Z8b3SetMaxIfEvRT_RKS0_.exit6.i43

if.then.i5.i53:                                   ; preds = %_Z8b3SetMaxIfEvRT_RKS0_.exit.i39
  store float %34, ptr %arrayidx3.i7, align 4
  br label %_Z8b3SetMaxIfEvRT_RKS0_.exit6.i43

_Z8b3SetMaxIfEvRT_RKS0_.exit6.i43:                ; preds = %if.then.i5.i53, %_Z8b3SetMaxIfEvRT_RKS0_.exit.i39
  %35 = phi float [ %34, %if.then.i5.i53 ], [ %17, %_Z8b3SetMaxIfEvRT_RKS0_.exit.i39 ]
  %36 = load float, ptr %arrayidx6.i27, align 4
  %cmp.i7.i46 = fcmp olt float %20, %36
  br i1 %cmp.i7.i46, label %if.then.i8.i52, label %_Z8b3SetMaxIfEvRT_RKS0_.exit9.i47

if.then.i8.i52:                                   ; preds = %_Z8b3SetMaxIfEvRT_RKS0_.exit6.i43
  store float %36, ptr %arrayidx5.i10, align 8
  br label %_Z8b3SetMaxIfEvRT_RKS0_.exit9.i47

_Z8b3SetMaxIfEvRT_RKS0_.exit9.i47:                ; preds = %if.then.i8.i52, %_Z8b3SetMaxIfEvRT_RKS0_.exit6.i43
  %37 = phi float [ %36, %if.then.i8.i52 ], [ %20, %_Z8b3SetMaxIfEvRT_RKS0_.exit6.i43 ]
  %38 = load float, ptr %arrayidx8.i31, align 4
  %cmp.i10.i50 = fcmp olt float %23, %38
  br i1 %cmp.i10.i50, label %if.then.i11.i51, label %_ZN9b3Vector36setMaxERKS_.exit55

if.then.i11.i51:                                  ; preds = %_Z8b3SetMaxIfEvRT_RKS0_.exit9.i47
  store float %38, ptr %arrayidx7.i13, align 4
  br label %_ZN9b3Vector36setMaxERKS_.exit55

_ZN9b3Vector36setMaxERKS_.exit55:                 ; preds = %_Z8b3SetMaxIfEvRT_RKS0_.exit9.i47, %if.then.i11.i51
  %39 = phi float [ %23, %_Z8b3SetMaxIfEvRT_RKS0_.exit9.i47 ], [ %38, %if.then.i11.i51 ]
  %arrayidx8 = getelementptr inbounds i8, ptr %triangle, i64 32
  %40 = load float, ptr %arrayidx8, align 4
  %cmp.i.i56 = fcmp olt float %40, %25
  br i1 %cmp.i.i56, label %if.then.i.i72, label %_Z8b3SetMinIfEvRT_RKS0_.exit.i57

if.then.i.i72:                                    ; preds = %_ZN9b3Vector36setMaxERKS_.exit55
  store float %40, ptr %m_aabbMin, align 16
  br label %_Z8b3SetMinIfEvRT_RKS0_.exit.i57

_Z8b3SetMinIfEvRT_RKS0_.exit.i57:                 ; preds = %if.then.i.i72, %_ZN9b3Vector36setMaxERKS_.exit55
  %arrayidx4.i59 = getelementptr inbounds i8, ptr %triangle, i64 36
  %41 = load float, ptr %arrayidx4.i59, align 4
  %cmp.i4.i60 = fcmp olt float %41, %27
  br i1 %cmp.i4.i60, label %if.then.i5.i71, label %_Z8b3SetMinIfEvRT_RKS0_.exit6.i61

if.then.i5.i71:                                   ; preds = %_Z8b3SetMinIfEvRT_RKS0_.exit.i57
  store float %41, ptr %arrayidx3.i, align 4
  br label %_Z8b3SetMinIfEvRT_RKS0_.exit6.i61

_Z8b3SetMinIfEvRT_RKS0_.exit6.i61:                ; preds = %if.then.i5.i71, %_Z8b3SetMinIfEvRT_RKS0_.exit.i57
  %arrayidx6.i63 = getelementptr inbounds i8, ptr %triangle, i64 40
  %42 = load float, ptr %arrayidx6.i63, align 4
  %cmp.i7.i64 = fcmp olt float %42, %29
  br i1 %cmp.i7.i64, label %if.then.i8.i70, label %_Z8b3SetMinIfEvRT_RKS0_.exit9.i65

if.then.i8.i70:                                   ; preds = %_Z8b3SetMinIfEvRT_RKS0_.exit6.i61
  store float %42, ptr %arrayidx5.i, align 8
  br label %_Z8b3SetMinIfEvRT_RKS0_.exit9.i65

_Z8b3SetMinIfEvRT_RKS0_.exit9.i65:                ; preds = %if.then.i8.i70, %_Z8b3SetMinIfEvRT_RKS0_.exit6.i61
  %arrayidx8.i67 = getelementptr inbounds i8, ptr %triangle, i64 44
  %43 = load float, ptr %arrayidx8.i67, align 4
  %cmp.i10.i68 = fcmp olt float %43, %31
  br i1 %cmp.i10.i68, label %if.then.i11.i69, label %_ZN9b3Vector36setMinERKS_.exit73

if.then.i11.i69:                                  ; preds = %_Z8b3SetMinIfEvRT_RKS0_.exit9.i65
  store float %43, ptr %arrayidx7.i, align 4
  br label %_ZN9b3Vector36setMinERKS_.exit73

_ZN9b3Vector36setMinERKS_.exit73:                 ; preds = %_Z8b3SetMinIfEvRT_RKS0_.exit9.i65, %if.then.i11.i69
  %44 = load float, ptr %arrayidx8, align 4
  %cmp.i.i74 = fcmp olt float %33, %44
  br i1 %cmp.i.i74, label %if.then.i.i90, label %_Z8b3SetMaxIfEvRT_RKS0_.exit.i75

if.then.i.i90:                                    ; preds = %_ZN9b3Vector36setMinERKS_.exit73
  store float %44, ptr %m_aabbMax, align 16
  br label %_Z8b3SetMaxIfEvRT_RKS0_.exit.i75

_Z8b3SetMaxIfEvRT_RKS0_.exit.i75:                 ; preds = %if.then.i.i90, %_ZN9b3Vector36setMinERKS_.exit73
  %45 = load float, ptr %arrayidx4.i59, align 4
  %cmp.i4.i78 = fcmp olt float %35, %45
  br i1 %cmp.i4.i78, label %if.then.i5.i89, label %_Z8b3SetMaxIfEvRT_RKS0_.exit6.i79

if.then.i5.i89:                                   ; preds = %_Z8b3SetMaxIfEvRT_RKS0_.exit.i75
  store float %45, ptr %arrayidx3.i7, align 4
  br label %_Z8b3SetMaxIfEvRT_RKS0_.exit6.i79

_Z8b3SetMaxIfEvRT_RKS0_.exit6.i79:                ; preds = %if.then.i5.i89, %_Z8b3SetMaxIfEvRT_RKS0_.exit.i75
  %46 = load float, ptr %arrayidx6.i63, align 4
  %cmp.i7.i82 = fcmp olt float %37, %46
  br i1 %cmp.i7.i82, label %if.then.i8.i88, label %_Z8b3SetMaxIfEvRT_RKS0_.exit9.i83

if.then.i8.i88:                                   ; preds = %_Z8b3SetMaxIfEvRT_RKS0_.exit6.i79
  store float %46, ptr %arrayidx5.i10, align 8
  br label %_Z8b3SetMaxIfEvRT_RKS0_.exit9.i83

_Z8b3SetMaxIfEvRT_RKS0_.exit9.i83:                ; preds = %if.then.i8.i88, %_Z8b3SetMaxIfEvRT_RKS0_.exit6.i79
  %47 = load float, ptr %arrayidx8.i67, align 4
  %cmp.i10.i86 = fcmp olt float %39, %47
  br i1 %cmp.i10.i86, label %if.then.i11.i87, label %_ZN9b3Vector36setMaxERKS_.exit91

if.then.i11.i87:                                  ; preds = %_Z8b3SetMaxIfEvRT_RKS0_.exit9.i83
  store float %47, ptr %arrayidx7.i13, align 4
  br label %_ZN9b3Vector36setMaxERKS_.exit91

_ZN9b3Vector36setMaxERKS_.exit91:                 ; preds = %_Z8b3SetMaxIfEvRT_RKS0_.exit9.i83, %if.then.i11.i87
  ret void
}